target datalayout = "e-m:e-p270:32:32-p271:32:32-p272:64:64-i64:64-i128:128-f80:128-n8:16:32:64-S128"
target triple = "x86_64-pc-linux-gnu"

%struct._object = type { i64, ptr }
%"struct.nanobind::detail::nb_inst" = type { %struct._object, i32, i32 }

; Function Attrs: noinline noreturn nounwind uwtable
define linkonce_odr hidden void @__clang_call_terminate(ptr noundef %0) #9 comdat {
  %2 = call ptr @__cxa_begin_catch(ptr %0) #20
  call void @_ZSt9terminatev() #22
  unreachable
}

; Function Attrs: mustprogress nounwind uwtable
define internal void @_ZN8nanobind6detailL27nb_type_put_unique_finalizeEP7_objectPKSt9type_infobb(ptr noundef %0, ptr noundef %1, i1 noundef zeroext %2, i1 noundef zeroext %3) #6 {
  %5 = alloca ptr, align 8
  %6 = alloca ptr, align 8
  %7 = alloca i8, align 1
  %8 = alloca i8, align 1
  %9 = alloca ptr, align 8
  store ptr %0, ptr %5, align 8
  store ptr %1, ptr %6, align 8
  %10 = zext i1 %2 to i8
  store i8 %10, ptr %7, align 1
  %11 = zext i1 %3 to i8
  store i8 %11, ptr %8, align 1
  %12 = load i8, ptr %7, align 1, !range !3, !noundef !4
  %13 = trunc i8 %12 to i1
  br i1 %13, label %18, label %14

14:                                               ; preds = %4
  %15 = load i8, ptr %8, align 1, !range !3, !noundef !4
  %16 = trunc i8 %15 to i1
  %17 = xor i1 %16, true
  br label %18

18:                                               ; preds = %14, %4
  %19 = phi i1 [ true, %4 ], [ %17, %14 ]
  %20 = xor i1 %19, true
  %21 = zext i1 %20 to i64
  %22 = call i64 @llvm.expect.i64(i64 %21, i64 0)
  %23 = icmp ne i64 %22, 0
  br i1 %23, label %24, label %25

24:                                               ; preds = %18
  call void @_ZN8nanobind6detail16fail_unspecifiedEv() #22
  unreachable

25:                                               ; preds = %18
  call void @llvm.lifetime.start.p0(i64 8, ptr %9) #20
  %26 = load ptr, ptr %5, align 8
  store ptr %26, ptr %9, align 8
  %27 = load i8, ptr %7, align 1, !range !3, !noundef !4
  %28 = trunc i8 %27 to i1
  br i1 %28, label %29, label %85

29:                                               ; preds = %25
  %30 = load ptr, ptr %9, align 8
  %31 = getelementptr inbounds nuw %"struct.nanobind::detail::nb_inst", ptr %30, i32 0, i32 2
  %32 = load i32, ptr %31, align 4
  %33 = and i32 %32, 3
  %34 = load i8, ptr %8, align 1, !range !3, !noundef !4
  %35 = trunc i8 %34 to i1
  %36 = select i1 %35, i32 2, i32 1
  %37 = icmp eq i32 %33, %36
  br i1 %37, label %38, label %62

38:                                               ; preds = %29
  %39 = load ptr, ptr %9, align 8
  %40 = getelementptr inbounds nuw %"struct.nanobind::detail::nb_inst", ptr %39, i32 0, i32 2
  %41 = load i32, ptr %40, align 4
  %42 = lshr i32 %41, 4
  %43 = and i32 %42, 1
  %44 = icmp ne i32 %43, 0
  %45 = zext i1 %44 to i32
  %46 = load i8, ptr %8, align 1, !range !3, !noundef !4
  %47 = trunc i8 %46 to i1
  %48 = zext i1 %47 to i32
  %49 = icmp eq i32 %45, %48
  br i1 %49, label %50, label %62

50:                                               ; preds = %38
  %51 = load ptr, ptr %9, align 8
  %52 = getelementptr inbounds nuw %"struct.nanobind::detail::nb_inst", ptr %51, i32 0, i32 2
  %53 = load i32, ptr %52, align 4
  %54 = lshr i32 %53, 5
  %55 = and i32 %54, 1
  %56 = icmp ne i32 %55, 0
  %57 = zext i1 %56 to i32
  %58 = load i8, ptr %8, align 1, !range !3, !noundef !4
  %59 = trunc i8 %58 to i1
  %60 = zext i1 %59 to i32
  %61 = icmp eq i32 %57, %60
  br label %62

62:                                               ; preds = %50, %38, %29
  %63 = phi i1 [ false, %38 ], [ false, %29 ], [ %61, %50 ]
  %64 = xor i1 %63, true
  %65 = zext i1 %64 to i64
  %66 = call i64 @llvm.expect.i64(i64 %65, i64 0)
  %67 = icmp ne i64 %66, 0
  br i1 %67, label %68, label %69

68:                                               ; preds = %62
  call void @_ZN8nanobind6detail16fail_unspecifiedEv() #22
  unreachable

69:                                               ; preds = %62
  %70 = load ptr, ptr %9, align 8
  %71 = getelementptr inbounds nuw %"struct.nanobind::detail::nb_inst", ptr %70, i32 0, i32 2
  %72 = load i32, ptr %71, align 4
  %73 = and i32 %72, -4
  %74 = or i32 %73, 2
  store i32 %74, ptr %71, align 4
  %75 = load ptr, ptr %9, align 8
  %76 = getelementptr inbounds nuw %"struct.nanobind::detail::nb_inst", ptr %75, i32 0, i32 2
  %77 = load i32, ptr %76, align 4
  %78 = and i32 %77, -33
  %79 = or i32 %78, 32
  store i32 %79, ptr %76, align 4
  %80 = load ptr, ptr %9, align 8
  %81 = getelementptr inbounds nuw %"struct.nanobind::detail::nb_inst", ptr %80, i32 0, i32 2
  %82 = load i32, ptr %81, align 4
  %83 = and i32 %82, -17
  %84 = or i32 %83, 16
  store i32 %84, ptr %81, align 4
  br label %102

85:                                               ; preds = %25
  %86 = load ptr, ptr %9, align 8
  %87 = getelementptr inbounds nuw %"struct.nanobind::detail::nb_inst", ptr %86, i32 0, i32 2
  %88 = load i32, ptr %87, align 4
  %89 = and i32 %88, 3
  %90 = icmp eq i32 %89, 1
  %91 = xor i1 %90, true
  %92 = zext i1 %91 to i64
  %93 = call i64 @llvm.expect.i64(i64 %92, i64 0)
  %94 = icmp ne i64 %93, 0
  br i1 %94, label %95, label %96

95:                                               ; preds = %85
  call void @_ZN8nanobind6detail16fail_unspecifiedEv() #22
  unreachable

96:                                               ; preds = %85
  %97 = load ptr, ptr %9, align 8
  %98 = getelementptr inbounds nuw %"struct.nanobind::detail::nb_inst", ptr %97, i32 0, i32 2
  %99 = load i32, ptr %98, align 4
  %100 = and i32 %99, -4
  %101 = or i32 %100, 2
  store i32 %101, ptr %98, align 4
  br label %102

102:                                              ; preds = %96, %69
  call void @llvm.lifetime.end.p0(i64 8, ptr %9) #20
  ret void
}

; Function Attrs: mustprogress nounwind uwtable
define noundef ptr @_ZN8nanobind6detail18nb_type_put_uniqueEPKSt9type_infoPvPNS0_12cleanup_listEb(ptr noundef %0, ptr noundef %1, ptr noundef %2, i1 noundef zeroext %3) #6 personality ptr @__gxx_personality_v0 {
  %5 = alloca ptr, align 8
  %6 = alloca ptr, align 8
  %7 = alloca ptr, align 8
  %8 = alloca i8, align 1
  %9 = alloca i32, align 4
  %10 = alloca i8, align 1
  %11 = alloca ptr, align 8
  store ptr %0, ptr %5, align 8
  store ptr %1, ptr %6, align 8
  store ptr %2, ptr %7, align 8
  %12 = zext i1 %3 to i8
  store i8 %12, ptr %8, align 1
  call void @llvm.lifetime.start.p0(i64 4, ptr %9) #20
  %13 = load i8, ptr %8, align 1, !range !3, !noundef !4
  %14 = trunc i8 %13 to i1
  %15 = select i1 %14, i32 2, i32 7
  store i32 %15, ptr %9, align 4
  call void @llvm.lifetime.start.p0(i64 1, ptr %10) #20
  store i8 0, ptr %10, align 1
  call void @llvm.lifetime.start.p0(i64 8, ptr %11) #20
  %16 = load ptr, ptr %5, align 8
  %17 = load ptr, ptr %6, align 8
  %18 = load i32, ptr %9, align 4
  %19 = load ptr, ptr %7, align 8
  %20 = call noundef ptr @_ZN8nanobind6detail11nb_type_putEPKSt9type_infoPvNS_9rv_policyEPNS0_12cleanup_listEPb(ptr noundef %16, ptr noundef %17, i32 noundef %18, ptr noundef %19, ptr noundef %10) #20
  store ptr %20, ptr %11, align 8
  %21 = load ptr, ptr %11, align 8
  %22 = icmp ne ptr %21, null
  br i1 %22, label %23, label %31

23:                                               ; preds = %4
  %24 = load ptr, ptr %11, align 8
  %25 = load ptr, ptr %5, align 8
  %26 = load i8, ptr %8, align 1, !range !3, !noundef !4
  %27 = trunc i8 %26 to i1
  %28 = load i8, ptr %10, align 1, !range !3, !noundef !4
  %29 = trunc i8 %28 to i1
  invoke void @_ZN8nanobind6detailL27nb_type_put_unique_finalizeEP7_objectPKSt9type_infobb(ptr noundef %24, ptr noundef %25, i1 noundef zeroext %27, i1 noundef zeroext %29)
          to label %30 unwind label %33

30:                                               ; preds = %23
  br label %31

31:                                               ; preds = %30, %4
  %32 = load ptr, ptr %11, align 8
  call void @llvm.lifetime.end.p0(i64 8, ptr %11) #20
  call void @llvm.lifetime.end.p0(i64 1, ptr %10) #20
  call void @llvm.lifetime.end.p0(i64 4, ptr %9) #20
  ret ptr %32

33:                                               ; preds = %23
  %34 = landingpad { ptr, i32 }
          catch ptr null
  %35 = extractvalue { ptr, i32 } %34, 0
  call void @__clang_call_terminate(ptr %35) #22
  unreachable
}