; Function Attrs: mustprogress nounwind uwtable
define noundef ptr @_ZN8nanobind6detail18nb_type_put_uniqueEPKSt9type_infoPvPNS0_12cleanup_listEb(ptr noundef %0, ptr noundef %1, ptr noundef %2, i1 noundef zeroext %3) local_unnamed_addr #5 personality ptr @__gxx_personality_v0 {
  %5 = alloca i8, align 1
  %6 = select i1 %3, i32 2, i32 7
  call void @llvm.lifetime.start.p0(i64 1, ptr nonnull %5) #29
  store i8 0, ptr %5, align 1
  %7 = call noundef ptr @_ZN8nanobind6detail11nb_type_putEPKSt9type_infoPvNS_9rv_policyEPNS0_12cleanup_listEPb(ptr noundef %0, ptr noundef %1, i32 noundef %6, ptr noundef %2, ptr noundef nonnull %5) #29
  %.not = icmp eq ptr %7, null
  br i1 %.not, label %32, label %8

8:                                                ; preds = %4
  %9 = load i8, ptr %5, align 1, !range !56, !noundef !57
  %10 = trunc nuw i8 %9 to i1
  %.not.i = xor i1 %3, true
  %11 = and i1 %.not.i, %10
  br i1 %11, label %12, label %13, !prof !4

12:                                               ; preds = %8
  call void @_ZN8nanobind6detail16fail_unspecifiedEv() #30
  unreachable

13:                                               ; preds = %8
  %14 = getelementptr inbounds nuw i8, ptr %7, i64 20
  %15 = load i32, ptr %14, align 4
  %16 = and i32 %15, 3
  br i1 %3, label %17, label %28

17:                                               ; preds = %13
  %18 = select i1 %10, i32 2, i32 1
  %19 = icmp eq i32 %16, %18
  br i1 %19, label %20, label %.critedge.i, !prof !3

20:                                               ; preds = %17
  %21 = and i32 %15, 16
  %22 = icmp eq i32 %21, 0
  %23 = xor i1 %22, %10
  br i1 %23, label %24, label %.critedge.i, !prof !3

24:                                               ; preds = %20
  %25 = and i32 %15, 32
  %26 = icmp ne i32 %25, 0
  %27 = xor i1 %26, %10
  br i1 %27, label %.critedge.i, label %_ZN8nanobind6detailL27nb_type_put_unique_finalizeEP7_objectPKSt9type_infobb.exit, !prof !4

.critedge.i:                                      ; preds = %24, %20, %17
  call void @_ZN8nanobind6detail16fail_unspecifiedEv() #30
  unreachable

28:                                               ; preds = %13
  %.not14.i = icmp eq i32 %16, 1
  br i1 %.not14.i, label %_ZN8nanobind6detailL27nb_type_put_unique_finalizeEP7_objectPKSt9type_infobb.exit, label %29, !prof !3

29:                                               ; preds = %28
  call void @_ZN8nanobind6detail16fail_unspecifiedEv() #30
  unreachable

_ZN8nanobind6detailL27nb_type_put_unique_finalizeEP7_objectPKSt9type_infobb.exit: ; preds = %24, %28
  %.sink.i = phi i32 [ -52, %24 ], [ -4, %28 ]
  %.sink2.i = phi i32 [ 50, %24 ], [ 2, %28 ]
  %30 = and i32 %.sink.i, %15
  %31 = or disjoint i32 %30, %.sink2.i
  store i32 %31, ptr %14, align 4
  br label %32

32:                                               ; preds = %_ZN8nanobind6detailL27nb_type_put_unique_finalizeEP7_objectPKSt9type_infobb.exit, %4
  call void @llvm.lifetime.end.p0(i64 1, ptr nonnull %5) #29
  ret ptr %7
}